ccopy_reg
_reconstructor
p1
(c__main__
MinMaxNormalization
p2
c__builtin__
object
p3
NtRp4
(dp5
S'_min'
p6
cnumpy.core.multiarray
scalar
p7
(cnumpy
dtype
p8
(S'f8'
I0
I1
tRp9
(I3
S'<'
NNNI-1
I-1
I0
tbS'\x00\x00\x00\x00\x00\x00\x00\x00'
tRp10
sS'_max'
p11
g7
(g9
S'\x00\x00\x00\x00\x00\xb0p@'
tRp12
sb.